; Function Attrs: nounwind uwtable
define hidden noundef i64 @ckAssertReturnValueOK(ptr noundef %0, i64 noundef returned %1) local_unnamed_addr #0 {
  %.not.i = icmp eq i64 %1, 0
  br i1 %.not.i, label %ckAssertReturnValueOK2.exit, label %3

3:                                                ; preds = %2
  %4 = load ptr, ptr %0, align 8
  %5 = getelementptr inbounds i8, ptr %4, i64 48
  %6 = load ptr, ptr %5, align 8
  %7 = tail call ptr %6(ptr noundef nonnull %0, ptr noundef nonnull @.str.3) #15
  %.not32.i = icmp eq ptr %7, null
  br i1 %.not32.i, label %23, label %8

8:                                                ; preds = %3
  %9 = load ptr, ptr %0, align 8
  %10 = getelementptr inbounds i8, ptr %9, i64 264
  %11 = load ptr, ptr %10, align 8
  %12 = tail call ptr %11(ptr noundef nonnull %0, ptr noundef nonnull %7, ptr noundef nonnull @.str.1, ptr noundef nonnull @.str.4) #15
  %.not33.i = icmp eq ptr %12, null
  br i1 %.not33.i, label %23, label %13

13:                                               ; preds = %8
  %14 = load ptr, ptr %0, align 8
  %15 = getelementptr inbounds i8, ptr %14, i64 224
  %16 = load ptr, ptr %15, align 8
  %17 = tail call ptr (ptr, ptr, ptr, ...) %16(ptr noundef nonnull %0, ptr noundef nonnull %7, ptr noundef nonnull %12, i64 noundef %1, ptr noundef null) #15
  %.not35.i = icmp eq ptr %17, null
  br i1 %.not35.i, label %23, label %18

18:                                               ; preds = %13
  %19 = load ptr, ptr %0, align 8
  %20 = getelementptr inbounds i8, ptr %19, i64 104
  %21 = load ptr, ptr %20, align 8
  %22 = tail call i32 %21(ptr noundef nonnull %0, ptr noundef nonnull %17) #15
  br label %23

23:                                               ; preds = %18, %13, %8, %3
  %24 = load ptr, ptr %0, align 8
  %25 = getelementptr inbounds i8, ptr %24, i64 184
  %26 = load ptr, ptr %25, align 8
  tail call void %26(ptr noundef nonnull %0, ptr noundef %7) #15
  br label %ckAssertReturnValueOK2.exit

ckAssertReturnValueOK2.exit:                      ; preds = %2, %23
  ret i64 %1
}